target datalayout = "e-m:e-p270:32:32-p271:32:32-p272:64:64-i64:64-i128:128-f80:128-n8:16:32:64-S128"
target triple = "x86_64-pc-linux-gnu"

%struct.BiquadsContext = type { ptr, i32, i32, i32, i32, i32, i32, i32, i32, double, double, double, double, ptr, %struct.AVChannelLayout, i32, i32, [3 x double], [3 x double], [3 x float], [3 x float], [3 x double], [3 x double], [3 x ptr], ptr, [2 x ptr], i32, i64, i32, ptr }
%struct.AVChannelLayout = type { i32, i32, %union.anon.1, ptr }
%union.anon.1 = type { i64 }

; Function Attrs: nounwind uwtable
define internal void @biquad_tdi_flt(ptr noundef %0, ptr noundef %1, ptr noundef %2, i32 noundef %3, ptr noundef %4, ptr noundef %5, i32 noundef %6) #1 {
  %8 = alloca ptr, align 8
  %9 = alloca ptr, align 8
  %10 = alloca ptr, align 8
  %11 = alloca i32, align 4
  %12 = alloca ptr, align 8
  %13 = alloca ptr, align 8
  %14 = alloca i32, align 4
  %15 = alloca ptr, align 8
  %16 = alloca ptr, align 8
  %17 = alloca ptr, align 8
  %18 = alloca ptr, align 8
  %19 = alloca ptr, align 8
  %20 = alloca float, align 4
  %21 = alloca float, align 4
  %22 = alloca float, align 4
  %23 = alloca float, align 4
  %24 = alloca float, align 4
  %25 = alloca float, align 4
  %26 = alloca float, align 4
  %27 = alloca float, align 4
  %28 = alloca float, align 4
  %29 = alloca float, align 4
  %30 = alloca float, align 4
  %31 = alloca float, align 4
  %32 = alloca float, align 4
  %33 = alloca i32, align 4
  %34 = alloca float, align 4
  %35 = alloca float, align 4
  %36 = alloca float, align 4
  %37 = alloca float, align 4
  store ptr %0, ptr %8, align 8, !tbaa !22
  store ptr %1, ptr %9, align 8, !tbaa !36
  store ptr %2, ptr %10, align 8, !tbaa !36
  store i32 %3, ptr %11, align 4, !tbaa !31
  store ptr %4, ptr %12, align 8, !tbaa !36
  store ptr %5, ptr %13, align 8, !tbaa !82
  store i32 %6, ptr %14, align 4, !tbaa !31
  call void @llvm.lifetime.start.p0(i64 8, ptr %15) #11
  %38 = load ptr, ptr %9, align 8, !tbaa !36
  store ptr %38, ptr %15, align 8, !tbaa !85
  call void @llvm.lifetime.start.p0(i64 8, ptr %16) #11
  %39 = load ptr, ptr %10, align 8, !tbaa !36
  store ptr %39, ptr %16, align 8, !tbaa !85
  call void @llvm.lifetime.start.p0(i64 8, ptr %17) #11
  %40 = load ptr, ptr %12, align 8, !tbaa !36
  store ptr %40, ptr %17, align 8, !tbaa !85
  call void @llvm.lifetime.start.p0(i64 8, ptr %18) #11
  %41 = load ptr, ptr %8, align 8, !tbaa !22
  %42 = getelementptr inbounds nuw %struct.BiquadsContext, ptr %41, i32 0, i32 19
  %43 = getelementptr inbounds [3 x float], ptr %42, i64 0, i64 0
  store ptr %43, ptr %18, align 8, !tbaa !85
  call void @llvm.lifetime.start.p0(i64 8, ptr %19) #11
  %44 = load ptr, ptr %8, align 8, !tbaa !22
  %45 = getelementptr inbounds nuw %struct.BiquadsContext, ptr %44, i32 0, i32 20
  %46 = getelementptr inbounds [3 x float], ptr %45, i64 0, i64 0
  store ptr %46, ptr %19, align 8, !tbaa !85
  call void @llvm.lifetime.start.p0(i64 4, ptr %20) #11
  %47 = load ptr, ptr %18, align 8, !tbaa !85
  %48 = getelementptr inbounds float, ptr %47, i64 1
  %49 = load float, ptr %48, align 4, !tbaa !80
  %50 = fneg nsz float %49
  store float %50, ptr %20, align 4, !tbaa !80
  call void @llvm.lifetime.start.p0(i64 4, ptr %21) #11
  %51 = load ptr, ptr %18, align 8, !tbaa !85
  %52 = getelementptr inbounds float, ptr %51, i64 2
  %53 = load float, ptr %52, align 4, !tbaa !80
  %54 = fneg nsz float %53
  store float %54, ptr %21, align 4, !tbaa !80
  call void @llvm.lifetime.start.p0(i64 4, ptr %22) #11
  %55 = load ptr, ptr %19, align 8, !tbaa !85
  %56 = getelementptr inbounds float, ptr %55, i64 0
  %57 = load float, ptr %56, align 4, !tbaa !80
  store float %57, ptr %22, align 4, !tbaa !80
  call void @llvm.lifetime.start.p0(i64 4, ptr %23) #11
  %58 = load ptr, ptr %19, align 8, !tbaa !85
  %59 = getelementptr inbounds float, ptr %58, i64 1
  %60 = load float, ptr %59, align 4, !tbaa !80
  store float %60, ptr %23, align 4, !tbaa !80
  call void @llvm.lifetime.start.p0(i64 4, ptr %24) #11
  %61 = load ptr, ptr %19, align 8, !tbaa !85
  %62 = getelementptr inbounds float, ptr %61, i64 2
  %63 = load float, ptr %62, align 4, !tbaa !80
  store float %63, ptr %24, align 4, !tbaa !80
  call void @llvm.lifetime.start.p0(i64 4, ptr %25) #11
  %64 = load ptr, ptr %17, align 8, !tbaa !85
  %65 = getelementptr inbounds float, ptr %64, i64 0
  %66 = load float, ptr %65, align 4, !tbaa !80
  store float %66, ptr %25, align 4, !tbaa !80
  call void @llvm.lifetime.start.p0(i64 4, ptr %26) #11
  %67 = load ptr, ptr %17, align 8, !tbaa !85
  %68 = getelementptr inbounds float, ptr %67, i64 1
  %69 = load float, ptr %68, align 4, !tbaa !80
  store float %69, ptr %26, align 4, !tbaa !80
  call void @llvm.lifetime.start.p0(i64 4, ptr %27) #11
  %70 = load ptr, ptr %17, align 8, !tbaa !85
  %71 = getelementptr inbounds float, ptr %70, i64 2
  %72 = load float, ptr %71, align 4, !tbaa !80
  store float %72, ptr %27, align 4, !tbaa !80
  call void @llvm.lifetime.start.p0(i64 4, ptr %28) #11
  %73 = load ptr, ptr %17, align 8, !tbaa !85
  %74 = getelementptr inbounds float, ptr %73, i64 3
  %75 = load float, ptr %74, align 4, !tbaa !80
  store float %75, ptr %28, align 4, !tbaa !80
  call void @llvm.lifetime.start.p0(i64 4, ptr %29) #11
  %76 = load ptr, ptr %8, align 8, !tbaa !22
  %77 = getelementptr inbounds nuw %struct.BiquadsContext, ptr %76, i32 0, i32 12
  %78 = load double, ptr %77, align 8, !tbaa !87
  %79 = fptrunc nsz double %78 to float
  store float %79, ptr %29, align 4, !tbaa !80
  call void @llvm.lifetime.start.p0(i64 4, ptr %30) #11
  %80 = load float, ptr %29, align 4, !tbaa !80
  %81 = fpext nsz float %80 to double
  %82 = fsub nsz double 1.000000e+00, %81
  %83 = fptrunc nsz double %82 to float
  store float %83, ptr %30, align 4, !tbaa !80
  call void @llvm.lifetime.start.p0(i64 4, ptr %31) #11
  call void @llvm.lifetime.start.p0(i64 4, ptr %32) #11
  call void @llvm.lifetime.start.p0(i64 4, ptr %33) #11
  store i32 0, ptr %33, align 4, !tbaa !31
  br label %84

84:                                               ; preds = %140, %7
  %85 = load i32, ptr %33, align 4, !tbaa !31
  %86 = load i32, ptr %11, align 4, !tbaa !31
  %87 = icmp slt i32 %85, %86
  br i1 %87, label %89, label %88

88:                                               ; preds = %84
  call void @llvm.lifetime.end.p0(i64 4, ptr %33) #11
  br label %143

89:                                               ; preds = %84
  call void @llvm.lifetime.start.p0(i64 4, ptr %34) #11
  call void @llvm.lifetime.start.p0(i64 4, ptr %35) #11
  call void @llvm.lifetime.start.p0(i64 4, ptr %36) #11
  call void @llvm.lifetime.start.p0(i64 4, ptr %37) #11
  %90 = load ptr, ptr %15, align 8, !tbaa !85
  %91 = load i32, ptr %33, align 4, !tbaa !31
  %92 = sext i32 %91 to i64
  %93 = getelementptr inbounds float, ptr %90, i64 %92
  %94 = load float, ptr %93, align 4, !tbaa !80
  %95 = load float, ptr %25, align 4, !tbaa !80
  %96 = fadd nsz float %94, %95
  store float %96, ptr %31, align 4, !tbaa !80
  %97 = load float, ptr %31, align 4, !tbaa !80
  %98 = load float, ptr %20, align 4, !tbaa !80
  %99 = load float, ptr %26, align 4, !tbaa !80
  %100 = call nsz float @llvm.fmuladd.f32(float %97, float %98, float %99)
  store float %100, ptr %34, align 4, !tbaa !80
  %101 = load float, ptr %31, align 4, !tbaa !80
  %102 = load float, ptr %21, align 4, !tbaa !80
  %103 = fmul nsz float %101, %102
  store float %103, ptr %35, align 4, !tbaa !80
  %104 = load float, ptr %31, align 4, !tbaa !80
  %105 = load float, ptr %23, align 4, !tbaa !80
  %106 = load float, ptr %28, align 4, !tbaa !80
  %107 = call nsz float @llvm.fmuladd.f32(float %104, float %105, float %106)
  store float %107, ptr %36, align 4, !tbaa !80
  %108 = load float, ptr %31, align 4, !tbaa !80
  %109 = load float, ptr %24, align 4, !tbaa !80
  %110 = fmul nsz float %108, %109
  store float %110, ptr %37, align 4, !tbaa !80
  %111 = load float, ptr %22, align 4, !tbaa !80
  %112 = load float, ptr %31, align 4, !tbaa !80
  %113 = load float, ptr %27, align 4, !tbaa !80
  %114 = call nsz float @llvm.fmuladd.f32(float %111, float %112, float %113)
  store float %114, ptr %32, align 4, !tbaa !80
  %115 = load float, ptr %32, align 4, !tbaa !80
  %116 = load float, ptr %29, align 4, !tbaa !80
  %117 = load float, ptr %31, align 4, !tbaa !80
  %118 = load float, ptr %30, align 4, !tbaa !80
  %119 = fmul nsz float %117, %118
  %120 = call nsz float @llvm.fmuladd.f32(float %115, float %116, float %119)
  store float %120, ptr %32, align 4, !tbaa !80
  %121 = load float, ptr %34, align 4, !tbaa !80
  store float %121, ptr %25, align 4, !tbaa !80
  %122 = load float, ptr %35, align 4, !tbaa !80
  store float %122, ptr %26, align 4, !tbaa !80
  %123 = load float, ptr %36, align 4, !tbaa !80
  store float %123, ptr %27, align 4, !tbaa !80
  %124 = load float, ptr %37, align 4, !tbaa !80
  store float %124, ptr %28, align 4, !tbaa !80
  %125 = load i32, ptr %14, align 4, !tbaa !31
  %126 = icmp ne i32 %125, 0
  br i1 %126, label %127, label %133

127:                                              ; preds = %89
  %128 = load float, ptr %31, align 4, !tbaa !80
  %129 = load ptr, ptr %16, align 8, !tbaa !85
  %130 = load i32, ptr %33, align 4, !tbaa !31
  %131 = sext i32 %130 to i64
  %132 = getelementptr inbounds float, ptr %129, i64 %131
  store float %128, ptr %132, align 4, !tbaa !80
  br label %139

133:                                              ; preds = %89
  %134 = load float, ptr %32, align 4, !tbaa !80
  %135 = load ptr, ptr %16, align 8, !tbaa !85
  %136 = load i32, ptr %33, align 4, !tbaa !31
  %137 = sext i32 %136 to i64
  %138 = getelementptr inbounds float, ptr %135, i64 %137
  store float %134, ptr %138, align 4, !tbaa !80
  br label %139

139:                                              ; preds = %133, %127
  call void @llvm.lifetime.end.p0(i64 4, ptr %37) #11
  call void @llvm.lifetime.end.p0(i64 4, ptr %36) #11
  call void @llvm.lifetime.end.p0(i64 4, ptr %35) #11
  call void @llvm.lifetime.end.p0(i64 4, ptr %34) #11
  br label %140

140:                                              ; preds = %139
  %141 = load i32, ptr %33, align 4, !tbaa !31
  %142 = add nsw i32 %141, 1
  store i32 %142, ptr %33, align 4, !tbaa !31
  br label %84, !llvm.loop !101

143:                                              ; preds = %88
  %144 = load float, ptr %25, align 4, !tbaa !80
  %145 = load ptr, ptr %17, align 8, !tbaa !85
  %146 = getelementptr inbounds float, ptr %145, i64 0
  store float %144, ptr %146, align 4, !tbaa !80
  %147 = load float, ptr %26, align 4, !tbaa !80
  %148 = load ptr, ptr %17, align 8, !tbaa !85
  %149 = getelementptr inbounds float, ptr %148, i64 1
  store float %147, ptr %149, align 4, !tbaa !80
  %150 = load float, ptr %27, align 4, !tbaa !80
  %151 = load ptr, ptr %17, align 8, !tbaa !85
  %152 = getelementptr inbounds float, ptr %151, i64 2
  store float %150, ptr %152, align 4, !tbaa !80
  %153 = load float, ptr %28, align 4, !tbaa !80
  %154 = load ptr, ptr %17, align 8, !tbaa !85
  %155 = getelementptr inbounds float, ptr %154, i64 3
  store float %153, ptr %155, align 4, !tbaa !80
  call void @llvm.lifetime.end.p0(i64 4, ptr %32) #11
  call void @llvm.lifetime.end.p0(i64 4, ptr %31) #11
  call void @llvm.lifetime.end.p0(i64 4, ptr %30) #11
  call void @llvm.lifetime.end.p0(i64 4, ptr %29) #11
  call void @llvm.lifetime.end.p0(i64 4, ptr %28) #11
  call void @llvm.lifetime.end.p0(i64 4, ptr %27) #11
  call void @llvm.lifetime.end.p0(i64 4, ptr %26) #11
  call void @llvm.lifetime.end.p0(i64 4, ptr %25) #11
  call void @llvm.lifetime.end.p0(i64 4, ptr %24) #11
  call void @llvm.lifetime.end.p0(i64 4, ptr %23) #11
  call void @llvm.lifetime.end.p0(i64 4, ptr %22) #11
  call void @llvm.lifetime.end.p0(i64 4, ptr %21) #11
  call void @llvm.lifetime.end.p0(i64 4, ptr %20) #11
  call void @llvm.lifetime.end.p0(i64 8, ptr %19) #11
  call void @llvm.lifetime.end.p0(i64 8, ptr %18) #11
  call void @llvm.lifetime.end.p0(i64 8, ptr %17) #11
  call void @llvm.lifetime.end.p0(i64 8, ptr %16) #11
  call void @llvm.lifetime.end.p0(i64 8, ptr %15) #11
  ret void
}