; Function Attrs: nofree norecurse nosync nounwind memory(argmem: readwrite) uwtable
define internal void @biquad_tdi_flt(ptr noundef readonly captures(none) %0, ptr noundef readonly captures(none) %1, ptr noundef writeonly captures(none) %2, i32 noundef %3, ptr noundef captures(none) %4, ptr readnone captures(none) %5, i32 noundef %6) #7 {
  %8 = getelementptr inbounds nuw i8, ptr %0, i64 172
  %9 = getelementptr inbounds nuw i8, ptr %0, i64 164
  %10 = load float, ptr %9, align 4, !tbaa !73
  %11 = fneg nsz float %10
  %12 = getelementptr inbounds nuw i8, ptr %0, i64 168
  %13 = load float, ptr %12, align 4, !tbaa !73
  %14 = fneg nsz float %13
  %15 = load float, ptr %8, align 4, !tbaa !73
  %16 = getelementptr inbounds nuw i8, ptr %0, i64 176
  %17 = load float, ptr %16, align 4, !tbaa !73
  %18 = getelementptr inbounds nuw i8, ptr %0, i64 180
  %19 = load float, ptr %18, align 4, !tbaa !73
  %20 = load float, ptr %4, align 4, !tbaa !73
  %21 = getelementptr inbounds nuw i8, ptr %4, i64 4
  %22 = load float, ptr %21, align 4, !tbaa !73
  %23 = getelementptr inbounds nuw i8, ptr %4, i64 8
  %24 = load float, ptr %23, align 4, !tbaa !73
  %25 = getelementptr inbounds nuw i8, ptr %4, i64 12
  %26 = load float, ptr %25, align 4, !tbaa !73
  %27 = getelementptr inbounds nuw i8, ptr %0, i64 64
  %28 = load double, ptr %27, align 8, !tbaa !75
  %29 = fptrunc nsz double %28 to float
  %30 = fsub nsz float 1.000000e+00, %29
  %31 = icmp sgt i32 %3, 0
  br i1 %31, label %.lr.ph, label %._crit_edge

.lr.ph:                                           ; preds = %7
  %.not = icmp eq i32 %6, 0
  %wide.trip.count83 = zext nneg i32 %3 to i64
  br i1 %.not, label %.lr.ph.split.us, label %.lr.ph.split

.lr.ph.split.us:                                  ; preds = %.lr.ph, %.lr.ph.split.us
  %indvars.iv80 = phi i64 [ %indvars.iv.next81, %.lr.ph.split.us ], [ 0, %.lr.ph ]
  %.065.us = phi float [ %35, %.lr.ph.split.us ], [ %20, %.lr.ph ]
  %.05764.us = phi float [ %36, %.lr.ph.split.us ], [ %22, %.lr.ph ]
  %.05863.us = phi float [ %37, %.lr.ph.split.us ], [ %24, %.lr.ph ]
  %.05962.us = phi float [ %38, %.lr.ph.split.us ], [ %26, %.lr.ph ]
  %32 = getelementptr inbounds nuw float, ptr %1, i64 %indvars.iv80
  %33 = load float, ptr %32, align 4, !tbaa !73
  %34 = fadd nsz float %.065.us, %33
  %35 = tail call nsz float @llvm.fmuladd.f32(float %34, float %11, float %.05764.us)
  %36 = fmul nsz float %34, %14
  %37 = tail call nsz float @llvm.fmuladd.f32(float %34, float %17, float %.05962.us)
  %38 = fmul nsz float %19, %34
  %39 = tail call nsz float @llvm.fmuladd.f32(float %15, float %34, float %.05863.us)
  %40 = fmul nsz float %30, %34
  %41 = tail call nsz float @llvm.fmuladd.f32(float %39, float %29, float %40)
  %42 = getelementptr inbounds nuw float, ptr %2, i64 %indvars.iv80
  store float %41, ptr %42, align 4, !tbaa !73
  %indvars.iv.next81 = add nuw nsw i64 %indvars.iv80, 1
  %exitcond84.not = icmp eq i64 %indvars.iv.next81, %wide.trip.count83
  br i1 %exitcond84.not, label %._crit_edge, label %.lr.ph.split.us, !llvm.loop !88

._crit_edge.split:                                ; preds = %.lr.ph.split
  %43 = tail call nsz float @llvm.fmuladd.f32(float %46, float %17, float %.05962)
  br label %._crit_edge

._crit_edge:                                      ; preds = %.lr.ph.split.us, %._crit_edge.split, %7
  %.059.lcssa = phi float [ %26, %7 ], [ %49, %._crit_edge.split ], [ %38, %.lr.ph.split.us ]
  %.058.lcssa = phi float [ %24, %7 ], [ %43, %._crit_edge.split ], [ %37, %.lr.ph.split.us ]
  %.057.lcssa = phi float [ %22, %7 ], [ %48, %._crit_edge.split ], [ %36, %.lr.ph.split.us ]
  %.0.lcssa = phi float [ %20, %7 ], [ %47, %._crit_edge.split ], [ %35, %.lr.ph.split.us ]
  store float %.0.lcssa, ptr %4, align 4, !tbaa !73
  store float %.057.lcssa, ptr %21, align 4, !tbaa !73
  store float %.058.lcssa, ptr %23, align 4, !tbaa !73
  store float %.059.lcssa, ptr %25, align 4, !tbaa !73
  ret void

.lr.ph.split:                                     ; preds = %.lr.ph, %.lr.ph.split
  %indvars.iv = phi i64 [ %indvars.iv.next, %.lr.ph.split ], [ 0, %.lr.ph ]
  %.065 = phi float [ %47, %.lr.ph.split ], [ %20, %.lr.ph ]
  %.05764 = phi float [ %48, %.lr.ph.split ], [ %22, %.lr.ph ]
  %.05962 = phi float [ %49, %.lr.ph.split ], [ %26, %.lr.ph ]
  %44 = getelementptr inbounds nuw float, ptr %1, i64 %indvars.iv
  %45 = load float, ptr %44, align 4, !tbaa !73
  %46 = fadd nsz float %.065, %45
  %47 = tail call nsz float @llvm.fmuladd.f32(float %46, float %11, float %.05764)
  %48 = fmul nsz float %46, %14
  %49 = fmul nsz float %19, %46
  %50 = getelementptr inbounds nuw float, ptr %2, i64 %indvars.iv
  store float %46, ptr %50, align 4, !tbaa !73
  %indvars.iv.next = add nuw nsw i64 %indvars.iv, 1
  %exitcond.not = icmp eq i64 %indvars.iv.next, %wide.trip.count83
  br i1 %exitcond.not, label %._crit_edge.split, label %.lr.ph.split, !llvm.loop !88
}